(lp0
S'1000k_kzz'
p1
aS'1400k_kzz'
p2
aS'1600k_kzz'
p3
aS'1800k_kzz'
p4
aS'2000k_kzz'
p5
aS'2200k_kzz'
p6
aS'2500k_kzz'
p7
aS'2800k_kzz'
p8
aS'3000k_kzz'
p9
aS'400k_kzz'
p10
aS'500k_kzz'
p11
aS'750k_kzz'
p12
aS'900k_kzz'
p13
a.